target datalayout = "e-m:e-p270:32:32-p271:32:32-p272:64:64-i64:64-i128:128-f80:128-n8:16:32:64-S128"
target triple = "x86_64-pc-linux-gnu"

%struct.CompressJobDesc = type { ptr, ptr, i64, i64, i64, ptr, ptr, ptr, ptr, i64, i32 }
%struct.WriteJobDesc = type { ptr, ptr, i64, i64, ptr }

@g_displayLevel = internal global i32 0, align 4
@stderr = external global ptr, align 8
@.str = private unnamed_addr constant [12 x i8] c"Error %i : \00", align 1
@.str.2 = private unnamed_addr constant [3 x i8] c" \0A\00", align 1
@.str.66 = private unnamed_addr constant [70 x i8] c"Allocation error : can't allocate output buffer to compress new chunk\00", align 1
@.str.67 = private unnamed_addr constant [48 x i8] c"Allocation error : can't describe new write job\00", align 1

; Function Attrs: nounwind uwtable
define internal void @LZ4IO_compressChunk(ptr noundef %0) #0 {
  %2 = alloca ptr, align 8
  %3 = alloca ptr, align 8
  %4 = alloca i64, align 8
  %5 = alloca ptr, align 8
  %6 = alloca ptr, align 8
  %7 = alloca i64, align 8
  %8 = alloca ptr, align 8
  store ptr %0, ptr %2, align 8, !tbaa !41
  call void @llvm.lifetime.start.p0(i64 8, ptr %3) #13
  %9 = load ptr, ptr %2, align 8, !tbaa !41
  store ptr %9, ptr %3, align 8, !tbaa !41
  call void @llvm.lifetime.start.p0(i64 8, ptr %4) #13
  %10 = load ptr, ptr %3, align 8, !tbaa !41
  %11 = getelementptr inbounds nuw %struct.CompressJobDesc, ptr %10, i32 0, i32 9
  %12 = load i64, ptr %11, align 8, !tbaa !101
  store i64 %12, ptr %4, align 8, !tbaa !32
  call void @llvm.lifetime.start.p0(i64 8, ptr %5) #13
  %13 = load i64, ptr %4, align 8, !tbaa !32
  %14 = call noalias ptr @malloc(i64 noundef %13) #14
  store ptr %14, ptr %5, align 8, !tbaa !41
  %15 = load ptr, ptr %5, align 8, !tbaa !41
  %16 = icmp ne ptr %15, null
  br i1 %16, label %55, label %17

17:                                               ; preds = %1
  %18 = load i32, ptr @g_displayLevel, align 4, !tbaa !9
  %19 = icmp sge i32 %18, 1
  br i1 %19, label %20, label %29

20:                                               ; preds = %17
  %21 = load ptr, ptr @stderr, align 8, !tbaa !11
  %22 = call i32 (ptr, ptr, ...) @fprintf(ptr noundef %21, ptr noundef @.str, i32 noundef 33) #13
  %23 = load i32, ptr @g_displayLevel, align 4, !tbaa !9
  %24 = icmp sge i32 %23, 4
  br i1 %24, label %25, label %28

25:                                               ; preds = %20
  %26 = load ptr, ptr @stderr, align 8, !tbaa !11
  %27 = call i32 @fflush(ptr noundef %26)
  br label %28

28:                                               ; preds = %25, %20
  br label %29

29:                                               ; preds = %28, %17
  %30 = load i32, ptr @g_displayLevel, align 4, !tbaa !9
  %31 = icmp sge i32 %30, 1
  br i1 %31, label %32, label %41

32:                                               ; preds = %29
  %33 = load ptr, ptr @stderr, align 8, !tbaa !11
  %34 = call i32 (ptr, ptr, ...) @fprintf(ptr noundef %33, ptr noundef @.str.66) #13
  %35 = load i32, ptr @g_displayLevel, align 4, !tbaa !9
  %36 = icmp sge i32 %35, 4
  br i1 %36, label %37, label %40

37:                                               ; preds = %32
  %38 = load ptr, ptr @stderr, align 8, !tbaa !11
  %39 = call i32 @fflush(ptr noundef %38)
  br label %40

40:                                               ; preds = %37, %32
  br label %41

41:                                               ; preds = %40, %29
  %42 = load i32, ptr @g_displayLevel, align 4, !tbaa !9
  %43 = icmp sge i32 %42, 1
  br i1 %43, label %44, label %53

44:                                               ; preds = %41
  %45 = load ptr, ptr @stderr, align 8, !tbaa !11
  %46 = call i32 (ptr, ptr, ...) @fprintf(ptr noundef %45, ptr noundef @.str.2) #13
  %47 = load i32, ptr @g_displayLevel, align 4, !tbaa !9
  %48 = icmp sge i32 %47, 4
  br i1 %48, label %49, label %52

49:                                               ; preds = %44
  %50 = load ptr, ptr @stderr, align 8, !tbaa !11
  %51 = call i32 @fflush(ptr noundef %50)
  br label %52

52:                                               ; preds = %49, %44
  br label %53

53:                                               ; preds = %52, %41
  %54 = call i32 @fflush(ptr noundef null)
  call void @exit(i32 noundef 33) #15
  unreachable

55:                                               ; preds = %1
  call void @llvm.lifetime.start.p0(i64 8, ptr %6) #13
  %56 = load ptr, ptr %3, align 8, !tbaa !41
  %57 = getelementptr inbounds nuw %struct.CompressJobDesc, ptr %56, i32 0, i32 1
  %58 = load ptr, ptr %57, align 8, !tbaa !93
  %59 = load ptr, ptr %3, align 8, !tbaa !41
  %60 = getelementptr inbounds nuw %struct.CompressJobDesc, ptr %59, i32 0, i32 2
  %61 = load i64, ptr %60, align 8, !tbaa !94
  %62 = getelementptr inbounds nuw i8, ptr %58, i64 %61
  store ptr %62, ptr %6, align 8, !tbaa !31
  call void @llvm.lifetime.start.p0(i64 8, ptr %7) #13
  %63 = load ptr, ptr %3, align 8, !tbaa !41
  %64 = getelementptr inbounds nuw %struct.CompressJobDesc, ptr %63, i32 0, i32 5
  %65 = load ptr, ptr %64, align 8, !tbaa !97
  %66 = load ptr, ptr %3, align 8, !tbaa !41
  %67 = getelementptr inbounds nuw %struct.CompressJobDesc, ptr %66, i32 0, i32 6
  %68 = load ptr, ptr %67, align 8, !tbaa !98
  %69 = load ptr, ptr %5, align 8, !tbaa !41
  %70 = load i64, ptr %4, align 8, !tbaa !32
  %71 = load ptr, ptr %6, align 8, !tbaa !31
  %72 = load ptr, ptr %3, align 8, !tbaa !41
  %73 = getelementptr inbounds nuw %struct.CompressJobDesc, ptr %72, i32 0, i32 3
  %74 = load i64, ptr %73, align 8, !tbaa !95
  %75 = load ptr, ptr %3, align 8, !tbaa !41
  %76 = getelementptr inbounds nuw %struct.CompressJobDesc, ptr %75, i32 0, i32 2
  %77 = load i64, ptr %76, align 8, !tbaa !94
  %78 = call i64 %65(ptr noundef %68, ptr noundef %69, i64 noundef %70, ptr noundef %71, i64 noundef %74, i64 noundef %77)
  store i64 %78, ptr %7, align 8, !tbaa !32
  call void @llvm.lifetime.start.p0(i64 8, ptr %8) #13
  %79 = call noalias ptr @malloc(i64 noundef 40) #14
  store ptr %79, ptr %8, align 8, !tbaa !41
  %80 = load ptr, ptr %8, align 8, !tbaa !41
  %81 = icmp eq ptr %80, null
  br i1 %81, label %82, label %120

82:                                               ; preds = %55
  %83 = load i32, ptr @g_displayLevel, align 4, !tbaa !9
  %84 = icmp sge i32 %83, 1
  br i1 %84, label %85, label %94

85:                                               ; preds = %82
  %86 = load ptr, ptr @stderr, align 8, !tbaa !11
  %87 = call i32 (ptr, ptr, ...) @fprintf(ptr noundef %86, ptr noundef @.str, i32 noundef 35) #13
  %88 = load i32, ptr @g_displayLevel, align 4, !tbaa !9
  %89 = icmp sge i32 %88, 4
  br i1 %89, label %90, label %93

90:                                               ; preds = %85
  %91 = load ptr, ptr @stderr, align 8, !tbaa !11
  %92 = call i32 @fflush(ptr noundef %91)
  br label %93

93:                                               ; preds = %90, %85
  br label %94

94:                                               ; preds = %93, %82
  %95 = load i32, ptr @g_displayLevel, align 4, !tbaa !9
  %96 = icmp sge i32 %95, 1
  br i1 %96, label %97, label %106

97:                                               ; preds = %94
  %98 = load ptr, ptr @stderr, align 8, !tbaa !11
  %99 = call i32 (ptr, ptr, ...) @fprintf(ptr noundef %98, ptr noundef @.str.67) #13
  %100 = load i32, ptr @g_displayLevel, align 4, !tbaa !9
  %101 = icmp sge i32 %100, 4
  br i1 %101, label %102, label %105

102:                                              ; preds = %97
  %103 = load ptr, ptr @stderr, align 8, !tbaa !11
  %104 = call i32 @fflush(ptr noundef %103)
  br label %105

105:                                              ; preds = %102, %97
  br label %106

106:                                              ; preds = %105, %94
  %107 = load i32, ptr @g_displayLevel, align 4, !tbaa !9
  %108 = icmp sge i32 %107, 1
  br i1 %108, label %109, label %118

109:                                              ; preds = %106
  %110 = load ptr, ptr @stderr, align 8, !tbaa !11
  %111 = call i32 (ptr, ptr, ...) @fprintf(ptr noundef %110, ptr noundef @.str.2) #13
  %112 = load i32, ptr @g_displayLevel, align 4, !tbaa !9
  %113 = icmp sge i32 %112, 4
  br i1 %113, label %114, label %117

114:                                              ; preds = %109
  %115 = load ptr, ptr @stderr, align 8, !tbaa !11
  %116 = call i32 @fflush(ptr noundef %115)
  br label %117

117:                                              ; preds = %114, %109
  br label %118

118:                                              ; preds = %117, %106
  %119 = call i32 @fflush(ptr noundef null)
  call void @exit(i32 noundef 35) #15
  unreachable

120:                                              ; preds = %55
  %121 = load ptr, ptr %5, align 8, !tbaa !41
  %122 = load ptr, ptr %8, align 8, !tbaa !41
  %123 = getelementptr inbounds nuw %struct.WriteJobDesc, ptr %122, i32 0, i32 1
  store ptr %121, ptr %123, align 8, !tbaa !109
  %124 = load i64, ptr %7, align 8, !tbaa !32
  %125 = load ptr, ptr %8, align 8, !tbaa !41
  %126 = getelementptr inbounds nuw %struct.WriteJobDesc, ptr %125, i32 0, i32 2
  store i64 %124, ptr %126, align 8, !tbaa !111
  %127 = load ptr, ptr %3, align 8, !tbaa !41
  %128 = getelementptr inbounds nuw %struct.CompressJobDesc, ptr %127, i32 0, i32 4
  %129 = load i64, ptr %128, align 8, !tbaa !96
  %130 = load ptr, ptr %8, align 8, !tbaa !41
  %131 = getelementptr inbounds nuw %struct.WriteJobDesc, ptr %130, i32 0, i32 3
  store i64 %129, ptr %131, align 8, !tbaa !112
  %132 = load ptr, ptr %3, align 8, !tbaa !41
  %133 = getelementptr inbounds nuw %struct.CompressJobDesc, ptr %132, i32 0, i32 7
  %134 = load ptr, ptr %133, align 8, !tbaa !99
  %135 = load ptr, ptr %8, align 8, !tbaa !41
  %136 = getelementptr inbounds nuw %struct.WriteJobDesc, ptr %135, i32 0, i32 4
  store ptr %134, ptr %136, align 8, !tbaa !113
  %137 = load ptr, ptr %3, align 8, !tbaa !41
  %138 = getelementptr inbounds nuw %struct.CompressJobDesc, ptr %137, i32 0, i32 8
  %139 = load ptr, ptr %138, align 8, !tbaa !100
  %140 = load ptr, ptr %8, align 8, !tbaa !41
  %141 = getelementptr inbounds nuw %struct.WriteJobDesc, ptr %140, i32 0, i32 0
  store ptr %139, ptr %141, align 8, !tbaa !114
  %142 = load ptr, ptr %3, align 8, !tbaa !41
  %143 = getelementptr inbounds nuw %struct.CompressJobDesc, ptr %142, i32 0, i32 0
  %144 = load ptr, ptr %143, align 8, !tbaa !91
  %145 = load ptr, ptr %8, align 8, !tbaa !41
  call void @TPool_submitJob(ptr noundef %144, ptr noundef @LZ4IO_checkWriteOrder, ptr noundef %145)
  call void @llvm.lifetime.end.p0(i64 8, ptr %8) #13
  call void @llvm.lifetime.end.p0(i64 8, ptr %7) #13
  call void @llvm.lifetime.end.p0(i64 8, ptr %6) #13
  call void @llvm.lifetime.end.p0(i64 8, ptr %5) #13
  call void @llvm.lifetime.end.p0(i64 8, ptr %4) #13
  call void @llvm.lifetime.end.p0(i64 8, ptr %3) #13
  ret void
}