; Function Attrs: nounwind uwtable
define internal void @LZ4IO_compressChunk(ptr noundef readonly captures(none) %0) #11 {
  %2 = getelementptr inbounds nuw i8, ptr %0, i64 72
  %3 = load i64, ptr %2, align 8, !tbaa !98
  %4 = tail call noalias ptr @malloc(i64 noundef %3) #25
  %.not = icmp eq ptr %4, null
  br i1 %.not, label %5, label %38

5:                                                ; preds = %1
  %6 = load i32, ptr @g_displayLevel, align 4, !tbaa !4
  %7 = icmp sgt i32 %6, 0
  br i1 %7, label %8, label %.thread27

8:                                                ; preds = %5
  %9 = load ptr, ptr @stderr, align 8, !tbaa !8
  %10 = tail call i32 (ptr, ptr, ...) @fprintf(ptr noundef %9, ptr noundef nonnull @.str, i32 noundef 33) #26
  %11 = load i32, ptr @g_displayLevel, align 4, !tbaa !4
  %12 = icmp sgt i32 %11, 3
  br i1 %12, label %13, label %16

13:                                               ; preds = %8
  %14 = load ptr, ptr @stderr, align 8, !tbaa !8
  %15 = tail call i32 @fflush(ptr noundef %14)
  %.pr = load i32, ptr @g_displayLevel, align 4, !tbaa !4
  br label %16

16:                                               ; preds = %8, %13
  %17 = phi i32 [ %11, %8 ], [ %.pr, %13 ]
  %18 = icmp sgt i32 %17, 0
  br i1 %18, label %19, label %.thread27

19:                                               ; preds = %16
  %20 = load ptr, ptr @stderr, align 8, !tbaa !8
  %21 = tail call i64 @fwrite(ptr nonnull @.str.66, i64 69, i64 1, ptr %20) #27
  %22 = load i32, ptr @g_displayLevel, align 4, !tbaa !4
  %23 = icmp sgt i32 %22, 3
  br i1 %23, label %24, label %thread-pre-split

24:                                               ; preds = %19
  %25 = load ptr, ptr @stderr, align 8, !tbaa !8
  %26 = tail call i32 @fflush(ptr noundef %25)
  %.pr26.pre = load i32, ptr @g_displayLevel, align 4, !tbaa !4
  br label %thread-pre-split

thread-pre-split:                                 ; preds = %24, %19
  %27 = phi i32 [ %22, %19 ], [ %.pr26.pre, %24 ]
  %28 = icmp sgt i32 %27, 0
  br i1 %28, label %29, label %.thread27

29:                                               ; preds = %thread-pre-split
  %30 = load ptr, ptr @stderr, align 8, !tbaa !8
  %31 = tail call i64 @fwrite(ptr nonnull @.str.2, i64 2, i64 1, ptr %30) #27
  %32 = load i32, ptr @g_displayLevel, align 4, !tbaa !4
  %33 = icmp sgt i32 %32, 3
  br i1 %33, label %34, label %.thread27

34:                                               ; preds = %29
  %35 = load ptr, ptr @stderr, align 8, !tbaa !8
  %36 = tail call i32 @fflush(ptr noundef %35)
  br label %.thread27

.thread27:                                        ; preds = %16, %5, %29, %34, %thread-pre-split
  %37 = tail call i32 @fflush(ptr noundef null)
  tail call void @exit(i32 noundef 33) #28
  unreachable

38:                                               ; preds = %1
  %39 = getelementptr inbounds nuw i8, ptr %0, i64 8
  %40 = load ptr, ptr %39, align 8, !tbaa !90
  %41 = getelementptr inbounds nuw i8, ptr %0, i64 16
  %42 = load i64, ptr %41, align 8, !tbaa !91
  %43 = getelementptr inbounds nuw i8, ptr %40, i64 %42
  %44 = getelementptr inbounds nuw i8, ptr %0, i64 40
  %45 = load ptr, ptr %44, align 8, !tbaa !94
  %46 = getelementptr inbounds nuw i8, ptr %0, i64 48
  %47 = load ptr, ptr %46, align 8, !tbaa !95
  %48 = getelementptr inbounds nuw i8, ptr %0, i64 24
  %49 = load i64, ptr %48, align 8, !tbaa !92
  %50 = tail call i64 %45(ptr noundef %47, ptr noundef nonnull %4, i64 noundef %3, ptr noundef %43, i64 noundef %49, i64 noundef %42) #24
  %51 = tail call noalias dereferenceable_or_null(40) ptr @malloc(i64 noundef 40) #25
  %52 = icmp eq ptr %51, null
  br i1 %52, label %53, label %86

53:                                               ; preds = %38
  %54 = load i32, ptr @g_displayLevel, align 4, !tbaa !4
  %55 = icmp sgt i32 %54, 0
  br i1 %55, label %56, label %.thread32

56:                                               ; preds = %53
  %57 = load ptr, ptr @stderr, align 8, !tbaa !8
  %58 = tail call i32 (ptr, ptr, ...) @fprintf(ptr noundef %57, ptr noundef nonnull @.str, i32 noundef 35) #26
  %59 = load i32, ptr @g_displayLevel, align 4, !tbaa !4
  %60 = icmp sgt i32 %59, 3
  br i1 %60, label %61, label %64

61:                                               ; preds = %56
  %62 = load ptr, ptr @stderr, align 8, !tbaa !8
  %63 = tail call i32 @fflush(ptr noundef %62)
  %.pr28 = load i32, ptr @g_displayLevel, align 4, !tbaa !4
  br label %64

64:                                               ; preds = %56, %61
  %65 = phi i32 [ %59, %56 ], [ %.pr28, %61 ]
  %66 = icmp sgt i32 %65, 0
  br i1 %66, label %67, label %.thread32

67:                                               ; preds = %64
  %68 = load ptr, ptr @stderr, align 8, !tbaa !8
  %69 = tail call i64 @fwrite(ptr nonnull @.str.67, i64 47, i64 1, ptr %68) #27
  %70 = load i32, ptr @g_displayLevel, align 4, !tbaa !4
  %71 = icmp sgt i32 %70, 3
  br i1 %71, label %72, label %thread-pre-split30

72:                                               ; preds = %67
  %73 = load ptr, ptr @stderr, align 8, !tbaa !8
  %74 = tail call i32 @fflush(ptr noundef %73)
  %.pr31.pre = load i32, ptr @g_displayLevel, align 4, !tbaa !4
  br label %thread-pre-split30

thread-pre-split30:                               ; preds = %72, %67
  %75 = phi i32 [ %70, %67 ], [ %.pr31.pre, %72 ]
  %76 = icmp sgt i32 %75, 0
  br i1 %76, label %77, label %.thread32

77:                                               ; preds = %thread-pre-split30
  %78 = load ptr, ptr @stderr, align 8, !tbaa !8
  %79 = tail call i64 @fwrite(ptr nonnull @.str.2, i64 2, i64 1, ptr %78) #27
  %80 = load i32, ptr @g_displayLevel, align 4, !tbaa !4
  %81 = icmp sgt i32 %80, 3
  br i1 %81, label %82, label %.thread32

82:                                               ; preds = %77
  %83 = load ptr, ptr @stderr, align 8, !tbaa !8
  %84 = tail call i32 @fflush(ptr noundef %83)
  br label %.thread32

.thread32:                                        ; preds = %64, %53, %77, %82, %thread-pre-split30
  %85 = tail call i32 @fflush(ptr noundef null)
  tail call void @exit(i32 noundef 35) #28
  unreachable

86:                                               ; preds = %38
  %87 = getelementptr inbounds nuw i8, ptr %51, i64 8
  store ptr %4, ptr %87, align 8, !tbaa !103
  %88 = getelementptr inbounds nuw i8, ptr %51, i64 16
  store i64 %50, ptr %88, align 8, !tbaa !105
  %89 = getelementptr inbounds nuw i8, ptr %0, i64 32
  %90 = load i64, ptr %89, align 8, !tbaa !93
  %91 = getelementptr inbounds nuw i8, ptr %51, i64 24
  store i64 %90, ptr %91, align 8, !tbaa !106
  %92 = getelementptr inbounds nuw i8, ptr %0, i64 56
  %93 = load ptr, ptr %92, align 8, !tbaa !96
  %94 = getelementptr inbounds nuw i8, ptr %51, i64 32
  store ptr %93, ptr %94, align 8, !tbaa !107
  %95 = getelementptr inbounds nuw i8, ptr %0, i64 64
  %96 = load ptr, ptr %95, align 8, !tbaa !97
  store ptr %96, ptr %51, align 8, !tbaa !108
  %97 = load ptr, ptr %0, align 8, !tbaa !88
  tail call void @TPool_submitJob(ptr noundef %97, ptr noundef nonnull @LZ4IO_checkWriteOrder, ptr noundef nonnull %51) #24
  ret void
}